target datalayout = "e-m:e-p270:32:32-p271:32:32-p272:64:64-i64:64-i128:128-f80:128-n8:16:32:64-S128"
target triple = "x86_64-pc-linux-gnu"

%struct.XPoint = type { i16, i16 }
%struct.XDrawHandlerData = type { i64, ptr, ptr, [256 x %struct.XPoint], i32, i32 }
%struct._DrawHandler = type { ptr, ptr, ptr, i32, i32, i32, i32, float, float, float, float, ptr }

@awt_display = external global ptr, align 8

; Function Attrs: nounwind uwtable
define internal void @drawScanline(ptr noundef %0, i32 noundef %1, i32 noundef %2, i32 noundef %3) #0 {
  %5 = alloca ptr, align 8
  %6 = alloca i32, align 4
  %7 = alloca i32, align 4
  %8 = alloca i32, align 4
  %9 = alloca ptr, align 8
  store ptr %0, ptr %5, align 8
  store i32 %1, ptr %6, align 4
  store i32 %2, ptr %7, align 4
  store i32 %3, ptr %8, align 4
  %10 = load ptr, ptr %5, align 8
  %11 = getelementptr inbounds %struct._DrawHandler, ptr %10, i32 0, i32 11
  %12 = load ptr, ptr %11, align 8
  store ptr %12, ptr %9, align 8
  %13 = load ptr, ptr @awt_display, align 8
  %14 = load ptr, ptr %9, align 8
  %15 = getelementptr inbounds %struct.XDrawHandlerData, ptr %14, i32 0, i32 0
  %16 = load i64, ptr %15, align 8
  %17 = load ptr, ptr %9, align 8
  %18 = getelementptr inbounds %struct.XDrawHandlerData, ptr %17, i32 0, i32 1
  %19 = load ptr, ptr %18, align 8
  %20 = load i32, ptr %6, align 4
  %21 = load i32, ptr %8, align 4
  %22 = load i32, ptr %7, align 4
  %23 = load i32, ptr %8, align 4
  %24 = call i32 @XDrawLine(ptr noundef %13, i64 noundef %16, ptr noundef %19, i32 noundef %20, i32 noundef %21, i32 noundef %22, i32 noundef %23)
  ret void
}