; Function Attrs: nounwind uwtable
define internal void @drawScanline(ptr nocapture noundef readonly %0, i32 noundef %1, i32 noundef %2, i32 noundef %3) #0 {
  %5 = getelementptr inbounds i8, ptr %0, i64 56
  %6 = load ptr, ptr %5, align 8
  %7 = load ptr, ptr @awt_display, align 8
  %8 = load i64, ptr %6, align 8
  %9 = getelementptr inbounds i8, ptr %6, i64 8
  %10 = load ptr, ptr %9, align 8
  %11 = tail call i32 @XDrawLine(ptr noundef %7, i64 noundef %8, ptr noundef %10, i32 noundef %1, i32 noundef %3, i32 noundef %2, i32 noundef %3) #10
  ret void
}